target datalayout = "e-m:e-p270:32:32-p271:32:32-p272:64:64-i64:64-i128:128-f80:128-n8:16:32:64-S128"
target triple = "x86_64-pc-linux-gnu"

%struct.JoinExpr = type { i32, i32, i8, ptr, ptr, ptr, ptr, ptr, ptr, i32 }

; Function Attrs: nounwind uwtable
define internal zeroext i1 @_equalJoinExpr(ptr noundef %0, ptr noundef %1) #0 {
  %3 = alloca i1, align 1
  %4 = alloca ptr, align 8
  %5 = alloca ptr, align 8
  store ptr %0, ptr %4, align 8
  store ptr %1, ptr %5, align 8
  br label %6

6:                                                ; preds = %2
  %7 = load ptr, ptr %4, align 8
  %8 = getelementptr inbounds nuw %struct.JoinExpr, ptr %7, i32 0, i32 1
  %9 = load i32, ptr %8, align 4
  %10 = load ptr, ptr %5, align 8
  %11 = getelementptr inbounds nuw %struct.JoinExpr, ptr %10, i32 0, i32 1
  %12 = load i32, ptr %11, align 4
  %13 = icmp ne i32 %9, %12
  br i1 %13, label %14, label %15

14:                                               ; preds = %6
  store i1 false, ptr %3, align 1
  br label %109

15:                                               ; preds = %6
  br label %16

16:                                               ; preds = %15
  br label %17

17:                                               ; preds = %16
  %18 = load ptr, ptr %4, align 8
  %19 = getelementptr inbounds nuw %struct.JoinExpr, ptr %18, i32 0, i32 2
  %20 = load i8, ptr %19, align 8, !range !4, !noundef !5
  %21 = trunc i8 %20 to i1
  %22 = zext i1 %21 to i32
  %23 = load ptr, ptr %5, align 8
  %24 = getelementptr inbounds nuw %struct.JoinExpr, ptr %23, i32 0, i32 2
  %25 = load i8, ptr %24, align 8, !range !4, !noundef !5
  %26 = trunc i8 %25 to i1
  %27 = zext i1 %26 to i32
  %28 = icmp ne i32 %22, %27
  br i1 %28, label %29, label %30

29:                                               ; preds = %17
  store i1 false, ptr %3, align 1
  br label %109

30:                                               ; preds = %17
  br label %31

31:                                               ; preds = %30
  br label %32

32:                                               ; preds = %31
  %33 = load ptr, ptr %4, align 8
  %34 = getelementptr inbounds nuw %struct.JoinExpr, ptr %33, i32 0, i32 3
  %35 = load ptr, ptr %34, align 8
  %36 = load ptr, ptr %5, align 8
  %37 = getelementptr inbounds nuw %struct.JoinExpr, ptr %36, i32 0, i32 3
  %38 = load ptr, ptr %37, align 8
  %39 = call zeroext i1 @equal(ptr noundef %35, ptr noundef %38)
  br i1 %39, label %41, label %40

40:                                               ; preds = %32
  store i1 false, ptr %3, align 1
  br label %109

41:                                               ; preds = %32
  br label %42

42:                                               ; preds = %41
  br label %43

43:                                               ; preds = %42
  %44 = load ptr, ptr %4, align 8
  %45 = getelementptr inbounds nuw %struct.JoinExpr, ptr %44, i32 0, i32 4
  %46 = load ptr, ptr %45, align 8
  %47 = load ptr, ptr %5, align 8
  %48 = getelementptr inbounds nuw %struct.JoinExpr, ptr %47, i32 0, i32 4
  %49 = load ptr, ptr %48, align 8
  %50 = call zeroext i1 @equal(ptr noundef %46, ptr noundef %49)
  br i1 %50, label %52, label %51

51:                                               ; preds = %43
  store i1 false, ptr %3, align 1
  br label %109

52:                                               ; preds = %43
  br label %53

53:                                               ; preds = %52
  br label %54

54:                                               ; preds = %53
  %55 = load ptr, ptr %4, align 8
  %56 = getelementptr inbounds nuw %struct.JoinExpr, ptr %55, i32 0, i32 5
  %57 = load ptr, ptr %56, align 8
  %58 = load ptr, ptr %5, align 8
  %59 = getelementptr inbounds nuw %struct.JoinExpr, ptr %58, i32 0, i32 5
  %60 = load ptr, ptr %59, align 8
  %61 = call zeroext i1 @equal(ptr noundef %57, ptr noundef %60)
  br i1 %61, label %63, label %62

62:                                               ; preds = %54
  store i1 false, ptr %3, align 1
  br label %109

63:                                               ; preds = %54
  br label %64

64:                                               ; preds = %63
  br label %65

65:                                               ; preds = %64
  %66 = load ptr, ptr %4, align 8
  %67 = getelementptr inbounds nuw %struct.JoinExpr, ptr %66, i32 0, i32 6
  %68 = load ptr, ptr %67, align 8
  %69 = load ptr, ptr %5, align 8
  %70 = getelementptr inbounds nuw %struct.JoinExpr, ptr %69, i32 0, i32 6
  %71 = load ptr, ptr %70, align 8
  %72 = call zeroext i1 @equal(ptr noundef %68, ptr noundef %71)
  br i1 %72, label %74, label %73

73:                                               ; preds = %65
  store i1 false, ptr %3, align 1
  br label %109

74:                                               ; preds = %65
  br label %75

75:                                               ; preds = %74
  br label %76

76:                                               ; preds = %75
  %77 = load ptr, ptr %4, align 8
  %78 = getelementptr inbounds nuw %struct.JoinExpr, ptr %77, i32 0, i32 7
  %79 = load ptr, ptr %78, align 8
  %80 = load ptr, ptr %5, align 8
  %81 = getelementptr inbounds nuw %struct.JoinExpr, ptr %80, i32 0, i32 7
  %82 = load ptr, ptr %81, align 8
  %83 = call zeroext i1 @equal(ptr noundef %79, ptr noundef %82)
  br i1 %83, label %85, label %84

84:                                               ; preds = %76
  store i1 false, ptr %3, align 1
  br label %109

85:                                               ; preds = %76
  br label %86

86:                                               ; preds = %85
  br label %87

87:                                               ; preds = %86
  %88 = load ptr, ptr %4, align 8
  %89 = getelementptr inbounds nuw %struct.JoinExpr, ptr %88, i32 0, i32 8
  %90 = load ptr, ptr %89, align 8
  %91 = load ptr, ptr %5, align 8
  %92 = getelementptr inbounds nuw %struct.JoinExpr, ptr %91, i32 0, i32 8
  %93 = load ptr, ptr %92, align 8
  %94 = call zeroext i1 @equal(ptr noundef %90, ptr noundef %93)
  br i1 %94, label %96, label %95

95:                                               ; preds = %87
  store i1 false, ptr %3, align 1
  br label %109

96:                                               ; preds = %87
  br label %97

97:                                               ; preds = %96
  br label %98

98:                                               ; preds = %97
  %99 = load ptr, ptr %4, align 8
  %100 = getelementptr inbounds nuw %struct.JoinExpr, ptr %99, i32 0, i32 9
  %101 = load i32, ptr %100, align 8
  %102 = load ptr, ptr %5, align 8
  %103 = getelementptr inbounds nuw %struct.JoinExpr, ptr %102, i32 0, i32 9
  %104 = load i32, ptr %103, align 8
  %105 = icmp ne i32 %101, %104
  br i1 %105, label %106, label %107

106:                                              ; preds = %98
  store i1 false, ptr %3, align 1
  br label %109

107:                                              ; preds = %98
  br label %108

108:                                              ; preds = %107
  store i1 true, ptr %3, align 1
  br label %109

109:                                              ; preds = %108, %106, %95, %84, %73, %62, %51, %40, %29, %14
  %110 = load i1, ptr %3, align 1
  ret i1 %110
}