; Function Attrs: nounwind uwtable
define internal fastcc zeroext i1 @_equalJoinExpr(ptr noundef nonnull readonly captures(none) %0, ptr noundef nonnull readonly captures(none) %1) unnamed_addr #0 {
  %3 = getelementptr inbounds nuw i8, ptr %0, i64 4
  %4 = load i32, ptr %3, align 4
  %5 = getelementptr inbounds nuw i8, ptr %1, i64 4
  %6 = load i32, ptr %5, align 4
  %.not = icmp eq i32 %4, %6
  br i1 %.not, label %7, label %53

7:                                                ; preds = %2
  %8 = getelementptr inbounds nuw i8, ptr %0, i64 8
  %9 = load i8, ptr %8, align 8, !range !4, !noundef !5
  %10 = getelementptr inbounds nuw i8, ptr %1, i64 8
  %11 = load i8, ptr %10, align 8, !range !4, !noundef !5
  %.not19 = icmp eq i8 %9, %11
  br i1 %.not19, label %12, label %53

12:                                               ; preds = %7
  %13 = getelementptr inbounds nuw i8, ptr %0, i64 16
  %14 = load ptr, ptr %13, align 8
  %15 = getelementptr inbounds nuw i8, ptr %1, i64 16
  %16 = load ptr, ptr %15, align 8
  %17 = tail call zeroext i1 @equal(ptr noundef %14, ptr noundef %16)
  br i1 %17, label %18, label %53

18:                                               ; preds = %12
  %19 = getelementptr inbounds nuw i8, ptr %0, i64 24
  %20 = load ptr, ptr %19, align 8
  %21 = getelementptr inbounds nuw i8, ptr %1, i64 24
  %22 = load ptr, ptr %21, align 8
  %23 = tail call zeroext i1 @equal(ptr noundef %20, ptr noundef %22)
  br i1 %23, label %24, label %53

24:                                               ; preds = %18
  %25 = getelementptr inbounds nuw i8, ptr %0, i64 32
  %26 = load ptr, ptr %25, align 8
  %27 = getelementptr inbounds nuw i8, ptr %1, i64 32
  %28 = load ptr, ptr %27, align 8
  %29 = tail call zeroext i1 @equal(ptr noundef %26, ptr noundef %28)
  br i1 %29, label %30, label %53

30:                                               ; preds = %24
  %31 = getelementptr inbounds nuw i8, ptr %0, i64 40
  %32 = load ptr, ptr %31, align 8
  %33 = getelementptr inbounds nuw i8, ptr %1, i64 40
  %34 = load ptr, ptr %33, align 8
  %35 = tail call zeroext i1 @equal(ptr noundef %32, ptr noundef %34)
  br i1 %35, label %36, label %53

36:                                               ; preds = %30
  %37 = getelementptr inbounds nuw i8, ptr %0, i64 48
  %38 = load ptr, ptr %37, align 8
  %39 = getelementptr inbounds nuw i8, ptr %1, i64 48
  %40 = load ptr, ptr %39, align 8
  %41 = tail call zeroext i1 @equal(ptr noundef %38, ptr noundef %40)
  br i1 %41, label %42, label %53

42:                                               ; preds = %36
  %43 = getelementptr inbounds nuw i8, ptr %0, i64 56
  %44 = load ptr, ptr %43, align 8
  %45 = getelementptr inbounds nuw i8, ptr %1, i64 56
  %46 = load ptr, ptr %45, align 8
  %47 = tail call zeroext i1 @equal(ptr noundef %44, ptr noundef %46)
  br i1 %47, label %48, label %53

48:                                               ; preds = %42
  %49 = getelementptr inbounds nuw i8, ptr %0, i64 64
  %50 = load i32, ptr %49, align 8
  %51 = getelementptr inbounds nuw i8, ptr %1, i64 64
  %52 = load i32, ptr %51, align 8
  %.not20 = icmp eq i32 %50, %52
  br label %53

53:                                               ; preds = %48, %42, %36, %30, %24, %18, %12, %7, %2
  %.0 = phi i1 [ false, %2 ], [ false, %7 ], [ false, %12 ], [ false, %18 ], [ false, %24 ], [ false, %30 ], [ false, %36 ], [ false, %42 ], [ %.not20, %48 ]
  ret i1 %.0
}